ccopy_reg
_reconstructor
p1
(cnltk.classify.naivebayes
NaiveBayesClassifier
p2
c__builtin__
object
p3
NtRp4
(dp5
S'_labels'
p6
(lp7
S'male'
p8
aS'female'
p9
asS'_feature_probdist'
p10
(dp11
(g8
S'lastletter'
p12
tp13
g1
(cnltk.probability
ELEProbDist
p14
g3
NtRp15
(dp16
S'_gamma'
p17
F0.5
sS'_N'
p18
I346
sS'_freqdist'
p19
cnltk.probability
FreqDist
p20
((dp21
S'a'
I24
sS'b'
I10
sS'e'
I2
sS'd'
I18
sS'f'
I2
sS'i'
I14
sS'h'
I38
sS'k'
I8
sS'j'
I13
sS'm'
I28
sS'l'
I34
sS'o'
I1
sS'n'
I60
sS'p'
I1
sS's'
I1
sS'r'
I42
sS'u'
I12
sS't'
I24
sS'v'
I8
sS'y'
I3
sS'z'
I3
stRp22
sS'_bins'
p23
I21
sS'_divisor'
p24
F356.5
sbs(g8
S'len'
p25
tp26
g1
(g14
g3
NtRp27
(dp28
g17
F0.5
sg18
I346
sg19
g20
((dp29
I3
I1
sI4
I26
sI5
I69
sI6
I83
sI7
I60
sI8
I53
sI9
I25
sI10
I18
sI11
I5
sI12
I5
sI13
I1
stRp30
sg23
I11
sg24
F351.5
sbs(g9
g12
tp31
g1
(g14
g3
NtRp32
(dp33
g17
F0.5
sg18
I274
sg19
g20
((dp34
S'a'
I144
sS'e'
I2
sS'd'
I2
sS'i'
I54
sS'h'
I3
sS'k'
I1
sS'j'
I1
sS'm'
I8
sS'l'
I7
sS'o'
I4
sS'n'
I20
sS's'
I2
sS'r'
I3
sS'u'
I7
sS't'
I9
sS'y'
I5
sS'z'
I2
stRp35
sg23
I21
sg24
F284.5
sbs(g9
g25
tp36
g1
(g14
g3
NtRp37
(dp38
g17
F0.5
sg18
I274
sg19
g20
((dp39
I3
I2
sI4
I12
sI5
I64
sI6
I83
sI7
I66
sI8
I25
sI9
I12
sI10
I5
sI11
I5
stRp40
sg23
I11
sg24
F279.5
sbs(g9
S'firstletter'
p41
tp42
g1
(g14
g3
NtRp43
(dp44
g17
F0.5
sg18
I274
sg19
g20
((dp45
S'a'
I25
sS'c'
I9
sS'b'
I7
sS'e'
I1
sS'd'
I13
sS'g'
I8
sS'f'
I3
sS'i'
I5
sS'h'
I8
sS'k'
I20
sS'j'
I14
sS'm'
I18
sS'l'
I3
sS'n'
I18
sS'p'
I13
sS's'
I71
sS'r'
I22
sS'u'
I3
sS't'
I8
sS'v'
I3
sS'y'
I1
sS'z'
I1
stRp46
sg23
I23
sg24
F285.5
sbs(g9
S'slastletter'
p47
tp48
g1
(g14
g3
NtRp49
(dp50
g17
F0.5
sg18
I274
sg19
g20
((dp51
S'ca'
p52
I1
sS'gi'
p53
I1
sS'le'
p54
I1
sS'la'
p55
I9
sS'tu'
p56
I1
sS'li'
p57
I6
sS'pa'
p58
I1
sS'ah'
p59
I1
sS'is'
p60
I1
sS'ta'
p61
I17
sS'do'
p62
I1
sS'ya'
p63
I14
sS'ti'
p64
I16
sS'it'
p65
I1
sS'hi'
p66
I6
sS'ha'
p67
I18
sS'ma'
p68
I11
sS'mo'
p69
I1
sS'mi'
p70
I2
sS'us'
p71
I1
sS'ri'
p72
I4
sS'um'
p73
I2
sS'ul'
p74
I3
sS'un'
p75
I1
sS'ud'
p76
I1
sS'my'
p77
I1
sS'en'
p78
I7
sS'ad'
p79
I1
sS'ee'
p80
I1
sS'vi'
p81
I4
sS'ak'
p82
I1
sS'aj'
p83
I1
sS'am'
p84
I5
sS'al'
p85
I4
sS'an'
p86
I4
sS'im'
p87
I1
sS'at'
p88
I1
sS'in'
p89
I6
sS'ia'
p90
I4
sS'et'
p91
I7
sS'az'
p92
I2
sS'er'
p93
I1
sS'ni'
p94
I11
sS'na'
p95
I39
sS'ey'
p96
I1
sS'ra'
p97
I6
sS'rn'
p98
I1
sS'nu'
p99
I2
sS'ur'
p100
I2
sS'ba'
p101
I1
sS'ru'
p102
I1
sS'ju'
p103
I1
sS'bo'
p104
I1
sS'bu'
p105
I1
sS'da'
p106
I7
sS'ja'
p107
I2
sS'oo'
p108
I1
sS'on'
p109
I1
sS'ka'
p110
I12
sS'fa'
p111
I1
sS'ki'
p112
I2
sS'ty'
p113
I3
sS'si'
p114
I2
sS'sh'
p115
I2
sS'ku'
p116
I1
sS'sa'
p117
I1
stRp118
sg23
I107
sg24
F327.5
sbs(g8
g47
tp119
g1
(g14
g3
NtRp120
(dp121
g17
F0.5
sg18
I346
sg19
g20
((dp122
S'en'
p123
I4
sS'gh'
p124
I1
sS'pu'
p125
I1
sS'tt'
p126
I1
sS'tu'
p127
I1
sS'li'
p128
I1
sS'lu'
p129
I2
sS'av'
p130
I3
sS'th'
p131
I5
sS'ed'
p132
I3
sS'ta'
p133
I1
sS'ir'
p134
I9
sS'dh'
p135
I2
sS'ya'
p136
I6
sS'ti'
p137
I4
sS'hv'
p138
I1
sS'it'
p139
I6
sS'du'
p140
I1
sS'yu'
p141
I1
sS'zi'
p142
I1
sS'ma'
p143
I2
sS'da'
p144
I2
sS'us'
p145
I1
sS'ri'
p146
I2
sS'ul'
p147
I6
sS'un'
p148
I1
sS'ub'
p149
I2
sS'im'
p150
I6
sS'il'
p151
I7
sS'em'
p152
I4
sS'ab'
p153
I4
sS'ad'
p154
I5
sS'ai'
p155
I2
sS'vi'
p156
I1
sS'ak'
p157
I4
sS'aj'
p158
I11
sS'am'
p159
I17
sS'al'
p160
I20
sS'an'
p161
I41
sS'ik'
p162
I2
sS'ar'
p163
I20
sS'ey'
p164
I1
sS'at'
p165
I6
sS'in'
p166
I12
sS'ay'
p167
I2
sS'et'
p168
I8
sS'ev'
p169
I4
sS'id'
p170
I5
sS'if'
p171
I2
sS'ru'
p172
I1
sS'az'
p173
I3
sS'na'
p174
I3
sS'nd'
p175
I3
sS'ne'
p176
I1
sS'ra'
p177
I6
sS'rm'
p178
I1
sS'er'
p179
I12
sS'nt'
p180
I2
sS'nu'
p181
I1
sS'ur'
p182
I1
sS'ni'
p183
I1
sS'ju'
p184
I1
sS'bi'
p185
I1
sS'nk'
p186
I1
sS'ji'
p187
I1
sS'hu'
p188
I2
sS'ja'
p189
I1
sS'oo'
p190
I1
sS'on'
p191
I2
sS'ka'
p192
I1
sS'ol'
p193
I1
sS'ok'
p194
I1
sS'oj'
p195
I2
sS'od'
p196
I2
sS'ob'
p197
I2
sS'de'
p198
I1
sS'sh'
p199
I30
sS'ku'
p200
I1
sS'sa'
p201
I2
sS'ot'
p202
I1
sS'ib'
p203
I2
sS'op'
p204
I1
stRp205
sg23
I107
sg24
F399.5
sbs(g8
g41
tp206
g1
(g14
g3
NtRp207
(dp208
g17
F0.5
sg18
I346
sg19
g20
((dp209
S'a'
I36
sS'c'
I5
sS'b'
I18
sS'e'
I1
sS'd'
I23
sS'g'
I7
sS'f'
I4
sS'i'
I6
sS'h'
I13
sS'k'
I18
sS'j'
I10
sS'm'
I31
sS'l'
I4
sS'n'
I19
sS'p'
I17
sS's'
I73
sS'r'
I25
sS'u'
I6
sS't'
I4
sS'w'
I3
sS'v'
I16
sS'y'
I6
sS'z'
I1
stRp210
sg23
I23
sg24
F357.5
sbssS'_label_probdist'
p211
g1
(g14
g3
NtRp212
(dp213
g17
F0.5
sg18
I620
sg19
g20
((dp214
g8
I346
sg9
I274
stRp215
sg23
I2
sg24
F621
sbsb.